Certificate:
    Data:
        Version: 3 (0x2)
        Serial Number: 4 (0x4)
    Signature Algorithm: sha1WithRSAEncryption
        Issuer: C=ES, ST=Some-State, O=UMU, OU=ST, CN=ca
        Validity
            Not Before: May 13 17:08:44 2014 GMT
            Not After : May 13 17:08:44 2015 GMT
        Subject: C=ES, ST=Some-State, O=UMU, OU=ST, CN=kiko
        Subject Public Key Info:
            Public Key Algorithm: rsaEncryption
                Public-Key: (1024 bit)
                Modulus:
                    00:a4:d8:14:a8:c5:95:4e:2f:65:11:84:f6:7b:f9:
                    56:c2:a2:7b:05:01:eb:cd:3d:a6:3b:01:ae:dd:3c:
                    a0:59:76:f9:f1:1f:ed:2a:b4:fd:0b:68:54:d4:df:
                    9a:8e:a8:58:24:03:e1:f1:d3:3d:74:4d:76:66:d1:
                    b1:3c:a2:ea:d8:08:87:15:f7:3b:b4:cb:a9:9f:56:
                    da:23:fc:d9:b7:98:be:82:88:5c:cf:56:7b:93:c5:
                    3d:22:c7:d7:53:b9:bc:72:9e:8f:d6:6a:ba:ac:1d:
                    06:b3:a1:58:89:40:89:b9:a6:6d:61:bf:dc:12:d0:
                    f7:e1:80:a8:bc:60:5d:5e:77
                Exponent: 65537 (0x10001)
        X509v3 extensions:
            X509v3 Basic Constraints: 
                CA:FALSE
            Netscape Comment: 
                OpenSSL Generated Certificate
            X509v3 Subject Key Identifier: 
                0E:95:73:EE:DA:D5:8F:AF:64:9E:82:BC:09:06:2A:FD:C0:F5:B9:5A
            X509v3 Authority Key Identifier: 
                keyid:4A:EF:52:A3:16:31:DF:ED:C2:F5:F7:FC:62:66:25:B0:7A:13:C5:F8

    Signature Algorithm: sha1WithRSAEncryption
         91:90:7d:f4:89:2c:16:e7:68:32:fe:ea:ea:4f:0a:34:0b:06:
         e7:c2:c6:c2:a5:a1:cb:56:7e:06:3a:b0:4e:6c:ff:c5:b3:fd:
         10:26:3a:ce:c9:d4:29:fb:62:4c:43:b3:b6:6f:81:2d:63:94:
         ab:31:c6:6a:37:28:22:89:d2:3d:57:84:7a:19:5e:54:e0:e1:
         71:df:3b:1b:c8:3b:8a:03:e8:a7:4a:95:98:1b:28:3a:77:ad:
         50:10:0f:25:26:2a:e3:7d:26:9c:61:47:d6:78:83:ac:5d:8c:
         fa:47:1b:2c:99:9e:99:40:88:c7:32:c9:61:2d:3a:a0:3d:32:
         63:87:b1:5b:cc:ea:e0:a1:e1:41:86:2f:cd:16:d0:bc:71:74:
         8e:3b:56:e6:c6:13:70:96:1d:67:55:d2:7a:51:b8:d1:6b:9a:
         a6:35:e3:8b:ff:44:23:80:a3:ce:f4:12:e9:19:7d:40:1d:fe:
         aa:75:90:8e:d6:30:92:ef:1b:f9:c6:a9:32:f4:b3:81:61:21:
         26:5d:9e:d0:e8:af:67:44:32:89:ba:18:a2:1f:4e:6d:c8:b6:
         5d:c9:d8:ea:10:c0:06:68:61:71:3c:1e:05:61:61:a9:05:48:
         53:cd:df:b5:c8:88:f3:87:af:b1:c5:1f:ec:51:1f:9f:3e:ff:
         3f:c7:23:69
-----BEGIN CERTIFICATE-----
MIIDCDCCAfCgAwIBAgIBBDANBgkqhkiG9w0BAQUFADBKMQswCQYDVQQGEwJFUzET
MBEGA1UECAwKU29tZS1TdGF0ZTEMMAoGA1UECgwDVU1VMQswCQYDVQQLDAJTVDEL
MAkGA1UEAwwCY2EwHhcNMTQwNTEzMTcwODQ0WhcNMTUwNTEzMTcwODQ0WjBMMQsw
CQYDVQQGEwJFUzETMBEGA1UECAwKU29tZS1TdGF0ZTEMMAoGA1UECgwDVU1VMQsw
CQYDVQQLDAJTVDENMAsGA1UEAwwEa2lrbzCBnzANBgkqhkiG9w0BAQEFAAOBjQAw
gYkCgYEApNgUqMWVTi9lEYT2e/lWwqJ7BQHrzT2mOwGu3TygWXb58R/tKrT9C2hU
1N+ajqhYJAPh8dM9dE12ZtGxPKLq2AiHFfc7tMupn1baI/zZt5i+gohcz1Z7k8U9
IsfXU7m8cp6P1mq6rB0Gs6FYiUCJuaZtYb/cEtD34YCovGBdXncCAwEAAaN7MHkw
CQYDVR0TBAIwADAsBglghkgBhvhCAQ0EHxYdT3BlblNTTCBHZW5lcmF0ZWQgQ2Vy
dGlmaWNhdGUwHQYDVR0OBBYEFA6Vc+7a1Y+vZJ6CvAkGKv3A9blaMB8GA1UdIwQY
MBaAFErvUqMWMd/twvX3/GJmJbB6E8X4MA0GCSqGSIb3DQEBBQUAA4IBAQCRkH30
iSwW52gy/urqTwo0CwbnwsbCpaHLVn4GOrBObP/Fs/0QJjrOydQp+2JMQ7O2b4Et
Y5SrMcZqNygiidI9V4R6GV5U4OFx3zsbyDuKA+inSpWYGyg6d61QEA8lJirjfSac
YUfWeIOsXYz6RxssmZ6ZQIjHMslhLTqgPTJjh7FbzOrgoeFBhi/NFtC8cXSOO1bm
xhNwlh1nVdJ6UbjRa5qmNeOL/0QjgKPO9BLpGX1AHf6qdZCO1jCS7xv5xqky9LOB
YSEmXZ7Q6K9nRDKJuhiiH05tyLZdydjqEMAGaGFxPB4FYWGpBUhTzd+1yIjzh6+x
xR/sUR+fPv8/xyNp
-----END CERTIFICATE-----
