Certificate:
    Data:
        Version: 3 (0x2)
        Serial Number: 1 (0x1)
    Signature Algorithm: sha1WithRSAEncryption
        Issuer: C=ES, ST=Some-State, O=UMU, OU=ST, CN=ca
        Validity
            Not Before: Sep  2 15:25:40 2013 GMT
            Not After : Sep  2 15:25:40 2014 GMT
        Subject: C=ES, ST=Some-State, O=UMU, OU=ST, CN=www.st.um
        Subject Public Key Info:
            Public Key Algorithm: rsaEncryption
                Public-Key: (1024 bit)
                Modulus:
                    00:b3:50:1b:07:6c:71:d4:74:79:8a:ea:4b:72:7f:
                    fd:4c:4e:b9:51:c4:e5:70:f4:ad:06:aa:e8:97:3e:
                    95:60:f7:f4:28:1f:3e:57:16:bd:3e:b7:84:43:80:
                    fd:48:4e:92:02:cb:07:66:aa:23:d1:ae:f1:59:5b:
                    59:13:af:a5:97:cb:e2:4f:4e:bb:c2:29:00:c2:c1:
                    c6:aa:70:b8:88:78:9a:8a:e7:0a:4b:80:26:be:27:
                    61:ec:31:b2:22:3a:51:79:20:db:02:fe:d9:df:30:
                    66:45:90:d6:b4:c6:59:23:02:96:80:40:20:20:5a:
                    03:62:97:89:7c:bf:18:ad:69
                Exponent: 65537 (0x10001)
        X509v3 extensions:
            X509v3 Basic Constraints: 
                CA:FALSE
            Netscape Comment: 
                OpenSSL Generated Certificate
            X509v3 Subject Key Identifier: 
                16:4F:06:B9:94:26:3A:9E:8E:6C:04:6D:4F:23:C6:EF:DC:84:E5:C9
            X509v3 Authority Key Identifier: 
                keyid:E4:67:7D:EE:4D:DC:23:FF:10:8C:1C:E5:E8:0E:34:8C:5F:A7:B3:D1

    Signature Algorithm: sha1WithRSAEncryption
         be:a0:69:32:57:6d:0c:ef:ff:9d:95:57:db:00:30:4c:f9:dd:
         95:a3:54:e4:a8:bc:d1:b8:71:53:58:ab:1e:16:fc:b2:60:7a:
         f7:73:47:33:10:6b:0d:39:1d:71:73:9e:96:c3:89:89:7c:51:
         41:23:cc:3e:bf:63:79:0c:f8:fd:ef:e1:5a:0d:8e:43:48:55:
         b5:fb:18:5d:de:de:f5:16:53:97:3d:f6:13:b8:1b:af:5f:d7:
         a0:61:05:5a:44:da:86:d0:d8:c0:ee:d2:d2:e0:ee:d3:7f:9f:
         49:e5:d0:52:6c:ca:cb:5f:ae:c0:ec:8a:4e:46:a4:80:e2:60:
         d1:82:a5:24:0b:40:a0:cd:6f:6a:63:de:f5:84:b5:f9:a2:93:
         9d:59:01:07:58:2f:33:a9:e9:ac:84:72:27:42:17:13:14:ee:
         56:7c:93:61:f2:e0:2c:42:ab:47:7f:dd:1f:25:7e:e9:c8:c4:
         0d:65:10:b2:05:e2:66:9f:9e:c0:f7:8d:b4:f4:52:3d:5d:84:
         0d:01:af:a6:32:1e:b7:40:8e:e1:74:77:6e:0b:f1:9a:4b:58:
         6e:f0:fb:45:d7:4f:2e:cc:58:3b:d7:74:b4:1f:be:79:1d:d7:
         1c:8f:d6:3b:5d:2d:4b:3c:c7:87:a0:8e:52:ec:6b:19:ef:90:
         26:29:df:cc
-----BEGIN CERTIFICATE-----
MIIDDTCCAfWgAwIBAgIBATANBgkqhkiG9w0BAQUFADBKMQswCQYDVQQGEwJFUzET
MBEGA1UECAwKU29tZS1TdGF0ZTEMMAoGA1UECgwDVU1VMQswCQYDVQQLDAJTVDEL
MAkGA1UEAwwCY2EwHhcNMTMwOTAyMTUyNTQwWhcNMTQwOTAyMTUyNTQwWjBRMQsw
CQYDVQQGEwJFUzETMBEGA1UECAwKU29tZS1TdGF0ZTEMMAoGA1UECgwDVU1VMQsw
CQYDVQQLDAJTVDESMBAGA1UEAwwJd3d3LnN0LnVtMIGfMA0GCSqGSIb3DQEBAQUA
A4GNADCBiQKBgQCzUBsHbHHUdHmK6ktyf/1MTrlRxOVw9K0GquiXPpVg9/QoHz5X
Fr0+t4RDgP1ITpICywdmqiPRrvFZW1kTr6WXy+JPTrvCKQDCwcaqcLiIeJqK5wpL
gCa+J2HsMbIiOlF5INsC/tnfMGZFkNa0xlkjApaAQCAgWgNil4l8vxitaQIDAQAB
o3sweTAJBgNVHRMEAjAAMCwGCWCGSAGG+EIBDQQfFh1PcGVuU1NMIEdlbmVyYXRl
ZCBDZXJ0aWZpY2F0ZTAdBgNVHQ4EFgQUFk8GuZQmOp6ObARtTyPG79yE5ckwHwYD
VR0jBBgwFoAU5Gd97k3cI/8QjBzl6A40jF+ns9EwDQYJKoZIhvcNAQEFBQADggEB
AL6gaTJXbQzv/52VV9sAMEz53ZWjVOSovNG4cVNYqx4W/LJgevdzRzMQaw05HXFz
npbDiYl8UUEjzD6/Y3kM+P3v4VoNjkNIVbX7GF3e3vUWU5c99hO4G69f16BhBVpE
2obQ2MDu0tLg7tN/n0nl0FJsystfrsDsik5GpIDiYNGCpSQLQKDNb2pj3vWEtfmi
k51ZAQdYLzOp6ayEcidCFxMU7lZ8k2Hy4CxCq0d/3R8lfunIxA1lELIF4mafnsD3
jbT0Uj1dhA0Br6YyHrdAjuF0d24L8ZpLWG7w+0XXTy7MWDvXdLQfvnkd1xyP1jtd
LUs8x4egjlLsaxnvkCYp38w=
-----END CERTIFICATE-----
