Certificate:
    Data:
        Version: 3 (0x2)
        Serial Number: 3 (0x3)
    Signature Algorithm: sha1WithRSAEncryption
        Issuer: C=ES, ST=Some-State, O=UMU, OU=ST, CN=ca
        Validity
            Not Before: May 13 16:59:20 2014 GMT
            Not After : May 13 16:59:20 2015 GMT
        Subject: C=ES, ST=Some-State, O=UMU, OU=ST, CN=www3.st.um
        Subject Public Key Info:
            Public Key Algorithm: rsaEncryption
                Public-Key: (1024 bit)
                Modulus:
                    00:b8:d7:84:1f:91:37:18:ca:5c:7e:88:7c:44:4f:
                    74:63:12:42:84:e5:6a:6c:43:d3:3f:b1:3a:ab:e8:
                    23:79:a3:fd:ce:be:97:09:f8:c9:67:f6:95:72:26:
                    49:94:a0:0a:cc:90:5a:8a:17:f4:6b:66:f1:fb:0b:
                    cb:ff:b8:0e:32:a6:80:6d:51:52:6b:c7:41:9a:24:
                    52:bc:d6:07:31:e3:15:17:b8:b5:bf:4c:2e:9c:be:
                    b6:04:37:ef:8e:9c:2d:a1:ee:bd:a9:12:7f:db:0b:
                    29:5a:31:20:eb:e4:7c:51:8b:2f:b5:b4:93:01:91:
                    d6:ad:6a:44:3d:e4:c2:99:19
                Exponent: 65537 (0x10001)
        X509v3 extensions:
            X509v3 Basic Constraints: 
                CA:FALSE
            Netscape Comment: 
                OpenSSL Generated Certificate
            X509v3 Subject Key Identifier: 
                75:B5:F9:B9:D6:07:92:68:B9:D9:EE:10:8D:A5:10:BC:D7:EF:C0:52
            X509v3 Authority Key Identifier: 
                keyid:4A:EF:52:A3:16:31:DF:ED:C2:F5:F7:FC:62:66:25:B0:7A:13:C5:F8

    Signature Algorithm: sha1WithRSAEncryption
         68:86:ee:21:ac:b8:d0:11:2c:96:16:ce:b8:e2:36:5c:91:d5:
         80:c9:23:82:e7:55:16:b6:23:50:86:da:f1:5b:b4:95:c5:b8:
         5f:ef:b6:22:2b:30:1b:2c:29:fb:2e:64:6c:9b:88:00:a3:84:
         a0:58:38:d6:44:44:b6:d0:3c:a2:b9:65:e7:0d:91:3a:34:71:
         8d:fa:23:36:9a:b3:ed:89:11:c5:65:21:1e:e5:47:97:e7:62:
         7f:63:50:10:5a:48:aa:98:47:41:8b:5b:39:82:e1:45:ac:64:
         7e:29:ca:a7:bf:1a:04:c0:74:99:7f:77:78:05:92:36:fe:d3:
         e8:e5:cc:70:ab:4b:95:86:87:09:58:d3:22:7c:60:8b:bd:95:
         79:16:13:bd:35:5d:d4:41:1c:6d:17:93:0e:5c:af:ba:44:76:
         f6:40:d2:2a:bf:75:a4:39:0b:a9:8e:7b:1b:32:b7:14:a9:47:
         9a:2f:8b:9d:2b:b1:9b:86:83:37:8d:10:e7:47:a3:9e:f0:63:
         56:b7:7e:9b:78:9a:16:39:d4:e1:1f:5f:ec:f7:46:99:f6:88:
         a1:9f:89:27:a5:5c:cd:74:98:9c:40:dd:00:91:a2:a3:5c:86:
         d5:b1:5f:29:cb:94:da:ef:c3:da:0a:54:ea:1f:ed:5b:61:ab:
         b1:dd:27:ef
-----BEGIN CERTIFICATE-----
MIIDDjCCAfagAwIBAgIBAzANBgkqhkiG9w0BAQUFADBKMQswCQYDVQQGEwJFUzET
MBEGA1UECAwKU29tZS1TdGF0ZTEMMAoGA1UECgwDVU1VMQswCQYDVQQLDAJTVDEL
MAkGA1UEAwwCY2EwHhcNMTQwNTEzMTY1OTIwWhcNMTUwNTEzMTY1OTIwWjBSMQsw
CQYDVQQGEwJFUzETMBEGA1UECAwKU29tZS1TdGF0ZTEMMAoGA1UECgwDVU1VMQsw
CQYDVQQLDAJTVDETMBEGA1UEAwwKd3d3My5zdC51bTCBnzANBgkqhkiG9w0BAQEF
AAOBjQAwgYkCgYEAuNeEH5E3GMpcfoh8RE90YxJChOVqbEPTP7E6q+gjeaP9zr6X
CfjJZ/aVciZJlKAKzJBaihf0a2bx+wvL/7gOMqaAbVFSa8dBmiRSvNYHMeMVF7i1
v0wunL62BDfvjpwtoe69qRJ/2wspWjEg6+R8UYsvtbSTAZHWrWpEPeTCmRkCAwEA
AaN7MHkwCQYDVR0TBAIwADAsBglghkgBhvhCAQ0EHxYdT3BlblNTTCBHZW5lcmF0
ZWQgQ2VydGlmaWNhdGUwHQYDVR0OBBYEFHW1+bnWB5JoudnuEI2lELzX78BSMB8G
A1UdIwQYMBaAFErvUqMWMd/twvX3/GJmJbB6E8X4MA0GCSqGSIb3DQEBBQUAA4IB
AQBohu4hrLjQESyWFs644jZckdWAySOC51UWtiNQhtrxW7SVxbhf77YiKzAbLCn7
LmRsm4gAo4SgWDjWRES20DyiuWXnDZE6NHGN+iM2mrPtiRHFZSEe5UeX52J/Y1AQ
WkiqmEdBi1s5guFFrGR+KcqnvxoEwHSZf3d4BZI2/tPo5cxwq0uVhocJWNMifGCL
vZV5FhO9NV3UQRxtF5MOXK+6RHb2QNIqv3WkOQupjnsbMrcUqUeaL4udK7GbhoM3
jRDnR6Oe8GNWt36beJoWOdThH1/s90aZ9oihn4knpVzNdJicQN0AkaKjXIbVsV8p
y5Ta78PaClTqH+1bYaux3Sfv
-----END CERTIFICATE-----
